target datalayout = "e-m:e-p270:32:32-p271:32:32-p272:64:64-i64:64-i128:128-f80:128-n8:16:32:64-S128"
target triple = "x86_64-pc-linux-gnu"

%struct._lv_dropdown_t = type { %struct._lv_obj_t, ptr, ptr, ptr, ptr, i32, i32, i32, i32, i8 }
%struct._lv_obj_t = type { ptr, ptr, ptr, ptr, ptr, %struct.lv_area_t, i32, i16, i16 }
%struct.lv_area_t = type { i32, i32, i32, i32 }
%union.lv_style_value_t = type { ptr }

; Function Attrs: inlinehint nounwind uwtable
define internal i32 @lv_obj_get_style_text_line_space(ptr noundef %0, i32 noundef %1) #3 {
  %3 = alloca ptr, align 8
  %4 = alloca i32, align 4
  %5 = alloca %union.lv_style_value_t, align 8
  store ptr %0, ptr %3, align 8, !tbaa !3
  store i32 %1, ptr %4, align 4, !tbaa !22
  call void @llvm.lifetime.start.p0(i64 8, ptr %5) #5
  %6 = load ptr, ptr %3, align 8, !tbaa !3
  %7 = load i32, ptr %4, align 4, !tbaa !22
  %8 = call ptr @lv_obj_get_style_prop(ptr noundef %6, i32 noundef %7, i8 noundef zeroext 92)
  %9 = getelementptr inbounds nuw %union.lv_style_value_t, ptr %5, i32 0, i32 0
  store ptr %8, ptr %9, align 8
  %10 = load i32, ptr %5, align 8, !tbaa !29
  call void @llvm.lifetime.end.p0(i64 8, ptr %5) #5
  ret i32 %10
}

; Function Attrs: inlinehint nounwind uwtable
define internal ptr @lv_obj_get_style_text_font(ptr noundef %0, i32 noundef %1) #3 {
  %3 = alloca ptr, align 8
  %4 = alloca i32, align 4
  %5 = alloca %union.lv_style_value_t, align 8
  store ptr %0, ptr %3, align 8, !tbaa !3
  store i32 %1, ptr %4, align 4, !tbaa !22
  call void @llvm.lifetime.start.p0(i64 8, ptr %5) #5
  %6 = load ptr, ptr %3, align 8, !tbaa !3
  %7 = load i32, ptr %4, align 4, !tbaa !22
  %8 = call ptr @lv_obj_get_style_prop(ptr noundef %6, i32 noundef %7, i8 noundef zeroext 90)
  %9 = getelementptr inbounds nuw %union.lv_style_value_t, ptr %5, i32 0, i32 0
  store ptr %8, ptr %9, align 8
  %10 = load ptr, ptr %5, align 8, !tbaa !29
  call void @llvm.lifetime.end.p0(i64 8, ptr %5) #5
  ret ptr %10
}

; Function Attrs: nounwind uwtable
define internal ptr @get_label(ptr noundef %0) #0 {
  %2 = alloca ptr, align 8
  %3 = alloca ptr, align 8
  %4 = alloca ptr, align 8
  %5 = alloca i32, align 4
  store ptr %0, ptr %3, align 8, !tbaa !3
  call void @llvm.lifetime.start.p0(i64 8, ptr %4) #5
  %6 = load ptr, ptr %3, align 8, !tbaa !3
  store ptr %6, ptr %4, align 8, !tbaa !3
  %7 = load ptr, ptr %4, align 8, !tbaa !3
  %8 = getelementptr inbounds nuw %struct._lv_dropdown_t, ptr %7, i32 0, i32 1
  %9 = load ptr, ptr %8, align 8, !tbaa !7
  %10 = icmp eq ptr %9, null
  br i1 %10, label %11, label %12

11:                                               ; preds = %1
  store ptr null, ptr %2, align 8
  store i32 1, ptr %5, align 4
  br label %17

12:                                               ; preds = %1
  %13 = load ptr, ptr %4, align 8, !tbaa !3
  %14 = getelementptr inbounds nuw %struct._lv_dropdown_t, ptr %13, i32 0, i32 1
  %15 = load ptr, ptr %14, align 8, !tbaa !7
  %16 = call ptr @lv_obj_get_child(ptr noundef %15, i32 noundef 0)
  store ptr %16, ptr %2, align 8
  store i32 1, ptr %5, align 4
  br label %17

17:                                               ; preds = %12, %11
  call void @llvm.lifetime.end.p0(i64 8, ptr %4) #5
  %18 = load ptr, ptr %2, align 8
  ret ptr %18
}

; Function Attrs: nounwind uwtable
define internal void @position_to_selected(ptr noundef %0) #0 {
  %2 = alloca ptr, align 8
  %3 = alloca ptr, align 8
  %4 = alloca ptr, align 8
  %5 = alloca i32, align 4
  %6 = alloca ptr, align 8
  %7 = alloca i32, align 4
  %8 = alloca i32, align 4
  %9 = alloca i32, align 4
  %10 = alloca i32, align 4
  store ptr %0, ptr %2, align 8, !tbaa !3
  call void @llvm.lifetime.start.p0(i64 8, ptr %3) #5
  %11 = load ptr, ptr %2, align 8, !tbaa !3
  store ptr %11, ptr %3, align 8, !tbaa !3
  call void @llvm.lifetime.start.p0(i64 8, ptr %4) #5
  %12 = load ptr, ptr %2, align 8, !tbaa !3
  %13 = call ptr @get_label(ptr noundef %12)
  store ptr %13, ptr %4, align 8, !tbaa !3
  %14 = load ptr, ptr %4, align 8, !tbaa !3
  %15 = icmp eq ptr %14, null
  br i1 %15, label %16, label %17

16:                                               ; preds = %1
  store i32 1, ptr %5, align 4
  br label %46

17:                                               ; preds = %1
  %18 = load ptr, ptr %4, align 8, !tbaa !3
  %19 = call i32 @lv_obj_get_height(ptr noundef %18)
  %20 = load ptr, ptr %2, align 8, !tbaa !3
  %21 = call i32 @lv_obj_get_content_height(ptr noundef %20)
  %22 = icmp sle i32 %19, %21
  br i1 %22, label %23, label %24

23:                                               ; preds = %17
  store i32 1, ptr %5, align 4
  br label %46

24:                                               ; preds = %17
  call void @llvm.lifetime.start.p0(i64 8, ptr %6) #5
  %25 = load ptr, ptr %4, align 8, !tbaa !3
  %26 = call ptr @lv_obj_get_style_text_font(ptr noundef %25, i32 noundef 0)
  store ptr %26, ptr %6, align 8, !tbaa !3
  call void @llvm.lifetime.start.p0(i64 4, ptr %7) #5
  %27 = load ptr, ptr %6, align 8, !tbaa !3
  %28 = call i32 @lv_font_get_line_height(ptr noundef %27)
  store i32 %28, ptr %7, align 4, !tbaa !22
  call void @llvm.lifetime.start.p0(i64 4, ptr %8) #5
  %29 = load ptr, ptr %4, align 8, !tbaa !3
  %30 = call i32 @lv_obj_get_style_text_line_space(ptr noundef %29, i32 noundef 0)
  store i32 %30, ptr %8, align 4, !tbaa !22
  call void @llvm.lifetime.start.p0(i64 4, ptr %9) #5
  %31 = load i32, ptr %7, align 4, !tbaa !22
  %32 = load i32, ptr %8, align 4, !tbaa !22
  %33 = add nsw i32 %31, %32
  store i32 %33, ptr %9, align 4, !tbaa !22
  call void @llvm.lifetime.start.p0(i64 4, ptr %10) #5
  %34 = load ptr, ptr %3, align 8, !tbaa !3
  %35 = getelementptr inbounds nuw %struct._lv_dropdown_t, ptr %34, i32 0, i32 6
  %36 = load i32, ptr %35, align 4, !tbaa !16
  %37 = load i32, ptr %9, align 4, !tbaa !22
  %38 = mul i32 %36, %37
  store i32 %38, ptr %10, align 4, !tbaa !22
  %39 = load ptr, ptr %3, align 8, !tbaa !3
  %40 = getelementptr inbounds nuw %struct._lv_dropdown_t, ptr %39, i32 0, i32 1
  %41 = load ptr, ptr %40, align 8, !tbaa !7
  %42 = load i32, ptr %10, align 4, !tbaa !22
  call void @lv_obj_scroll_to_y(ptr noundef %41, i32 noundef %42, i32 noundef 0)
  %43 = load ptr, ptr %3, align 8, !tbaa !3
  %44 = getelementptr inbounds nuw %struct._lv_dropdown_t, ptr %43, i32 0, i32 1
  %45 = load ptr, ptr %44, align 8, !tbaa !7
  call void @lv_obj_invalidate(ptr noundef %45)
  call void @llvm.lifetime.end.p0(i64 4, ptr %10) #5
  call void @llvm.lifetime.end.p0(i64 4, ptr %9) #5
  call void @llvm.lifetime.end.p0(i64 4, ptr %8) #5
  call void @llvm.lifetime.end.p0(i64 4, ptr %7) #5
  call void @llvm.lifetime.end.p0(i64 8, ptr %6) #5
  store i32 0, ptr %5, align 4
  br label %46

46:                                               ; preds = %24, %23, %16
  call void @llvm.lifetime.end.p0(i64 8, ptr %4) #5
  call void @llvm.lifetime.end.p0(i64 8, ptr %3) #5
  %47 = load i32, ptr %5, align 4
  switch i32 %47, label %49 [
    i32 0, label %48
    i32 1, label %48
  ]

48:                                               ; preds = %46, %46
  ret void

49:                                               ; preds = %46
  unreachable
}