; Function Attrs: nounwind uwtable
define internal fastcc void @position_to_selected(ptr noundef %0) unnamed_addr #0 {
  %2 = getelementptr i8, ptr %0, i64 64
  %.val = load ptr, ptr %2, align 8, !tbaa !3
  %3 = icmp eq ptr %.val, null
  br i1 %3, label %get_label.exit.thread, label %get_label.exit

get_label.exit:                                   ; preds = %1
  %4 = tail call ptr @lv_obj_get_child(ptr noundef nonnull %.val, i32 noundef 0) #7
  %5 = icmp eq ptr %4, null
  br i1 %5, label %get_label.exit.thread, label %6

6:                                                ; preds = %get_label.exit
  %7 = tail call i32 @lv_obj_get_height(ptr noundef nonnull %4) #7
  %8 = tail call i32 @lv_obj_get_content_height(ptr noundef nonnull %0) #7
  %.not = icmp sgt i32 %7, %8
  br i1 %.not, label %9, label %get_label.exit.thread

9:                                                ; preds = %6
  %10 = tail call ptr @lv_obj_get_style_prop(ptr noundef nonnull %4, i32 noundef 0, i8 noundef zeroext 90) #7
  %11 = tail call i32 @lv_font_get_line_height(ptr noundef %10) #7
  %12 = tail call ptr @lv_obj_get_style_prop(ptr noundef nonnull %4, i32 noundef 0, i8 noundef zeroext 92) #7
  %13 = ptrtoint ptr %12 to i64
  %.sroa.0.0.extract.trunc.i = trunc i64 %13 to i32
  %14 = add nsw i32 %11, %.sroa.0.0.extract.trunc.i
  %15 = getelementptr inbounds nuw i8, ptr %0, i64 100
  %16 = load i32, ptr %15, align 4, !tbaa !15
  %17 = mul i32 %14, %16
  %18 = load ptr, ptr %2, align 8, !tbaa !3
  tail call void @lv_obj_scroll_to_y(ptr noundef %18, i32 noundef %17, i32 noundef 0) #7
  %19 = load ptr, ptr %2, align 8, !tbaa !3
  tail call void @lv_obj_invalidate(ptr noundef %19) #7
  br label %get_label.exit.thread

get_label.exit.thread:                            ; preds = %1, %6, %get_label.exit, %9
  ret void
}